; Function Attrs: mustprogress uwtable
define hidden noundef i32 @_ZN3opt10opt_solver13adjust_resultE5lbool(ptr noundef nonnull align 8 dereferenceable(1042) %0, i32 noundef %1) local_unnamed_addr #4 align 2 {
  %3 = icmp eq i32 %1, 0
  br i1 %3, label %4, label %10

4:                                                ; preds = %2
  %5 = getelementptr inbounds nuw i8, ptr %0, i64 928
  %6 = tail call noundef i32 @_ZNK3smt6kernel12last_failureEv(ptr noundef nonnull align 8 dereferenceable(8) %5)
  %7 = icmp eq i32 %6, 8
  br i1 %7, label %8, label %10

8:                                                ; preds = %4
  %9 = getelementptr inbounds nuw i8, ptr %0, i64 1041
  store i8 1, ptr %9, align 1, !tbaa !94
  br label %10

10:                                               ; preds = %8, %4, %2
  %.0 = phi i32 [ 1, %8 ], [ 0, %4 ], [ %1, %2 ]
  ret i32 %.0
}